target datalayout = "e-m:e-p270:32:32-p271:32:32-p272:64:64-i64:64-i128:128-f80:128-n8:16:32:64-S128"
target triple = "x86_64-pc-linux-gnu"

%struct.expert_field = type { i32, i32 }

@hf_giop_TCKind = internal global i32 0, align 4
@hf_giop_typecode_digits = internal global i32 0, align 4
@hf_giop_typecode_max_length = internal global i32 0, align 4
@hf_giop_typecode_scale = internal global i32 0, align 4
@ett_giop_typecode_parameters = internal global i32 0, align 4
@ei_giop_unknown_tckind = internal global %struct.expert_field zeroinitializer, align 4
@ei_giop_max_recursion_depth_reached = internal global %struct.expert_field zeroinitializer, align 4
@proto_giop = internal global i32 0, align 4
@.str.247 = private unnamed_addr constant [20 x i8] c"TypeCode-Parameters\00", align 1
@.str.248 = private unnamed_addr constant [18 x i8] c"Unknown TCKind %u\00", align 1

; Function Attrs: null_pointer_is_valid sspstrong uwtable
define internal i32 @get_CDR_typeCode_with_params(ptr noundef %0, ptr noundef %1, ptr noundef %2, ptr noundef %3, i1 noundef zeroext %4, i32 noundef %5, ptr noundef %6, ptr noundef %7) #0 {
  %9 = alloca i32, align 4
  %10 = alloca ptr, align 8
  %11 = alloca ptr, align 8
  %12 = alloca ptr, align 8
  %13 = alloca ptr, align 8
  %14 = alloca i8, align 1
  %15 = alloca i32, align 4
  %16 = alloca ptr, align 8
  %17 = alloca ptr, align 8
  %18 = alloca i32, align 4
  %19 = alloca i16, align 2
  %20 = alloca i16, align 2
  %21 = alloca i32, align 4
  %22 = alloca ptr, align 8
  %23 = alloca i32, align 4
  %24 = alloca i32, align 4
  %25 = alloca ptr, align 8
  store ptr %0, ptr %10, align 8
  store ptr %1, ptr %11, align 8
  store ptr %2, ptr %12, align 8
  store ptr %3, ptr %13, align 8
  %26 = zext i1 %4 to i8
  store i8 %26, ptr %14, align 1
  store i32 %5, ptr %15, align 4
  store ptr %6, ptr %16, align 8
  store ptr %7, ptr %17, align 8
  call void @llvm.lifetime.start.p0(i64 4, ptr %18) #14
  call void @llvm.lifetime.start.p0(i64 2, ptr %19) #14
  call void @llvm.lifetime.start.p0(i64 2, ptr %20) #14
  call void @llvm.lifetime.start.p0(i64 4, ptr %21) #14
  call void @llvm.lifetime.start.p0(i64 8, ptr %22) #14
  %27 = load ptr, ptr %10, align 8
  %28 = load ptr, ptr %13, align 8
  %29 = load i8, ptr %14, align 1, !range !8, !noundef !9
  %30 = trunc i8 %29 to i1
  %31 = load i32, ptr %15, align 4
  %32 = call i32 @get_CDR_ulong(ptr noundef %27, ptr noundef %28, i1 noundef zeroext %30, i32 noundef %31)
  store i32 %32, ptr %18, align 4
  call void @llvm.lifetime.start.p0(i64 4, ptr %23) #14
  %33 = load ptr, ptr %11, align 8
  %34 = load i32, ptr @proto_giop, align 4
  %35 = call i32 @p_get_proto_depth(ptr noundef %33, i32 noundef %34)
  store i32 %35, ptr %23, align 4
  %36 = load i32, ptr %23, align 4
  %37 = icmp ugt i32 %36, 100
  br i1 %37, label %38, label %44

38:                                               ; preds = %8
  %39 = load ptr, ptr %12, align 8
  %40 = load ptr, ptr %11, align 8
  %41 = load ptr, ptr %10, align 8
  %42 = call ptr @proto_tree_add_expert(ptr noundef %39, ptr noundef %40, ptr noundef @ei_giop_max_recursion_depth_reached, ptr noundef %41, i32 noundef 0, i32 noundef 0)
  %43 = load i32, ptr %18, align 4
  store i32 %43, ptr %9, align 4
  store i32 1, ptr %24, align 4
  br label %258

44:                                               ; preds = %8
  %45 = load ptr, ptr %11, align 8
  %46 = load i32, ptr @proto_giop, align 4
  %47 = load i32, ptr %23, align 4
  %48 = add i32 %47, 1
  call void @p_set_proto_depth(ptr noundef %45, i32 noundef %46, i32 noundef %48)
  %49 = load ptr, ptr %12, align 8
  %50 = load i32, ptr @hf_giop_TCKind, align 4
  %51 = load ptr, ptr %10, align 8
  %52 = load ptr, ptr %13, align 8
  %53 = load i32, ptr %52, align 4
  %54 = sub i32 %53, 4
  %55 = load i32, ptr %18, align 4
  %56 = call ptr @proto_tree_add_uint(ptr noundef %49, i32 noundef %50, ptr noundef %51, i32 noundef %54, i32 noundef 4, i32 noundef %55)
  store ptr %56, ptr %22, align 8
  call void @llvm.lifetime.start.p0(i64 8, ptr %25) #14
  %57 = load ptr, ptr %12, align 8
  %58 = load ptr, ptr %10, align 8
  %59 = load ptr, ptr %13, align 8
  %60 = load i32, ptr %59, align 4
  %61 = load i32, ptr @ett_giop_typecode_parameters, align 4
  %62 = call ptr @proto_tree_add_subtree(ptr noundef %57, ptr noundef %58, i32 noundef %60, i32 noundef -1, i32 noundef %61, ptr noundef null, ptr noundef @.str.247)
  store ptr %62, ptr %25, align 8
  %63 = load i32, ptr %18, align 4
  switch i32 %63, label %248 [
    i32 0, label %253
    i32 1, label %253
    i32 2, label %253
    i32 3, label %253
    i32 4, label %253
    i32 5, label %253
    i32 6, label %253
    i32 7, label %253
    i32 8, label %253
    i32 9, label %253
    i32 10, label %253
    i32 11, label %253
    i32 12, label %253
    i32 13, label %253
    i32 14, label %64
    i32 15, label %71
    i32 16, label %81
    i32 17, label %91
    i32 18, label %100
    i32 19, label %119
    i32 20, label %129
    i32 21, label %139
    i32 22, label %149
    i32 23, label %253
    i32 24, label %253
    i32 25, label %253
    i32 26, label %253
    i32 27, label %158
    i32 28, label %177
    i32 29, label %216
    i32 30, label %225
    i32 31, label %234
    i32 32, label %241
  ]

64:                                               ; preds = %44
  %65 = load ptr, ptr %10, align 8
  %66 = load ptr, ptr %25, align 8
  %67 = load ptr, ptr %13, align 8
  %68 = load i8, ptr %14, align 1, !range !8, !noundef !9
  %69 = trunc i8 %68 to i1
  %70 = load i32, ptr %15, align 4
  call void @dissect_tk_objref_params(ptr noundef %65, ptr noundef %66, ptr noundef %67, i1 noundef zeroext %69, i32 noundef %70)
  br label %253

71:                                               ; preds = %44
  %72 = load ptr, ptr %10, align 8
  %73 = load ptr, ptr %11, align 8
  %74 = load ptr, ptr %25, align 8
  %75 = load ptr, ptr %13, align 8
  %76 = load i8, ptr %14, align 1, !range !8, !noundef !9
  %77 = trunc i8 %76 to i1
  %78 = load i32, ptr %15, align 4
  %79 = load ptr, ptr %16, align 8
  %80 = load ptr, ptr %17, align 8
  call void @dissect_tk_struct_params(ptr noundef %72, ptr noundef %73, ptr noundef %74, ptr noundef %75, i1 noundef zeroext %77, i32 noundef %78, ptr noundef %79, ptr noundef %80)
  br label %253

81:                                               ; preds = %44
  %82 = load ptr, ptr %10, align 8
  %83 = load ptr, ptr %11, align 8
  %84 = load ptr, ptr %25, align 8
  %85 = load ptr, ptr %22, align 8
  %86 = load ptr, ptr %13, align 8
  %87 = load i8, ptr %14, align 1, !range !8, !noundef !9
  %88 = trunc i8 %87 to i1
  %89 = load i32, ptr %15, align 4
  %90 = load ptr, ptr %16, align 8
  call void @dissect_tk_union_params(ptr noundef %82, ptr noundef %83, ptr noundef %84, ptr noundef %85, ptr noundef %86, i1 noundef zeroext %88, i32 noundef %89, ptr noundef %90)
  br label %253

91:                                               ; preds = %44
  %92 = load ptr, ptr %10, align 8
  %93 = load ptr, ptr %11, align 8
  %94 = load ptr, ptr %25, align 8
  %95 = load ptr, ptr %13, align 8
  %96 = load i8, ptr %14, align 1, !range !8, !noundef !9
  %97 = trunc i8 %96 to i1
  %98 = load i32, ptr %15, align 4
  %99 = load ptr, ptr %17, align 8
  call void @dissect_tk_enum_params(ptr noundef %92, ptr noundef %93, ptr noundef %94, ptr noundef %95, i1 noundef zeroext %97, i32 noundef %98, ptr noundef %99)
  br label %253

100:                                              ; preds = %44
  %101 = load ptr, ptr %10, align 8
  %102 = load ptr, ptr %13, align 8
  %103 = load i8, ptr %14, align 1, !range !8, !noundef !9
  %104 = trunc i8 %103 to i1
  %105 = load i32, ptr %15, align 4
  %106 = call i32 @get_CDR_ulong(ptr noundef %101, ptr noundef %102, i1 noundef zeroext %104, i32 noundef %105)
  store i32 %106, ptr %21, align 4
  %107 = load ptr, ptr %25, align 8
  %108 = icmp ne ptr %107, null
  br i1 %108, label %109, label %118

109:                                              ; preds = %100
  %110 = load ptr, ptr %25, align 8
  %111 = load i32, ptr @hf_giop_typecode_max_length, align 4
  %112 = load ptr, ptr %10, align 8
  %113 = load ptr, ptr %13, align 8
  %114 = load i32, ptr %113, align 4
  %115 = sub i32 %114, 4
  %116 = load i32, ptr %21, align 4
  %117 = call ptr @proto_tree_add_uint(ptr noundef %110, i32 noundef %111, ptr noundef %112, i32 noundef %115, i32 noundef 4, i32 noundef %116)
  br label %118

118:                                              ; preds = %109, %100
  br label %253

119:                                              ; preds = %44
  %120 = load ptr, ptr %10, align 8
  %121 = load ptr, ptr %11, align 8
  %122 = load ptr, ptr %25, align 8
  %123 = load ptr, ptr %13, align 8
  %124 = load i8, ptr %14, align 1, !range !8, !noundef !9
  %125 = trunc i8 %124 to i1
  %126 = load i32, ptr %15, align 4
  %127 = load ptr, ptr %16, align 8
  %128 = load ptr, ptr %17, align 8
  call void @dissect_tk_sequence_params(ptr noundef %120, ptr noundef %121, ptr noundef %122, ptr noundef %123, i1 noundef zeroext %125, i32 noundef %126, ptr noundef %127, ptr noundef %128)
  br label %253

129:                                              ; preds = %44
  %130 = load ptr, ptr %10, align 8
  %131 = load ptr, ptr %11, align 8
  %132 = load ptr, ptr %25, align 8
  %133 = load ptr, ptr %13, align 8
  %134 = load i8, ptr %14, align 1, !range !8, !noundef !9
  %135 = trunc i8 %134 to i1
  %136 = load i32, ptr %15, align 4
  %137 = load ptr, ptr %16, align 8
  %138 = load ptr, ptr %17, align 8
  call void @dissect_tk_array_params(ptr noundef %130, ptr noundef %131, ptr noundef %132, ptr noundef %133, i1 noundef zeroext %135, i32 noundef %136, ptr noundef %137, ptr noundef %138)
  br label %253

139:                                              ; preds = %44
  %140 = load ptr, ptr %10, align 8
  %141 = load ptr, ptr %11, align 8
  %142 = load ptr, ptr %25, align 8
  %143 = load ptr, ptr %13, align 8
  %144 = load i8, ptr %14, align 1, !range !8, !noundef !9
  %145 = trunc i8 %144 to i1
  %146 = load i32, ptr %15, align 4
  %147 = load ptr, ptr %16, align 8
  %148 = load ptr, ptr %17, align 8
  call void @dissect_tk_alias_params(ptr noundef %140, ptr noundef %141, ptr noundef %142, ptr noundef %143, i1 noundef zeroext %145, i32 noundef %146, ptr noundef %147, ptr noundef %148)
  br label %253

149:                                              ; preds = %44
  %150 = load ptr, ptr %10, align 8
  %151 = load ptr, ptr %11, align 8
  %152 = load ptr, ptr %25, align 8
  %153 = load ptr, ptr %13, align 8
  %154 = load i8, ptr %14, align 1, !range !8, !noundef !9
  %155 = trunc i8 %154 to i1
  %156 = load i32, ptr %15, align 4
  %157 = load ptr, ptr %16, align 8
  call void @dissect_tk_except_params(ptr noundef %150, ptr noundef %151, ptr noundef %152, ptr noundef %153, i1 noundef zeroext %155, i32 noundef %156, ptr noundef %157)
  br label %253

158:                                              ; preds = %44
  %159 = load ptr, ptr %10, align 8
  %160 = load ptr, ptr %13, align 8
  %161 = load i8, ptr %14, align 1, !range !8, !noundef !9
  %162 = trunc i8 %161 to i1
  %163 = load i32, ptr %15, align 4
  %164 = call i32 @get_CDR_ulong(ptr noundef %159, ptr noundef %160, i1 noundef zeroext %162, i32 noundef %163)
  store i32 %164, ptr %21, align 4
  %165 = load ptr, ptr %25, align 8
  %166 = icmp ne ptr %165, null
  br i1 %166, label %167, label %176

167:                                              ; preds = %158
  %168 = load ptr, ptr %25, align 8
  %169 = load i32, ptr @hf_giop_typecode_max_length, align 4
  %170 = load ptr, ptr %10, align 8
  %171 = load ptr, ptr %13, align 8
  %172 = load i32, ptr %171, align 4
  %173 = sub i32 %172, 4
  %174 = load i32, ptr %21, align 4
  %175 = call ptr @proto_tree_add_uint(ptr noundef %168, i32 noundef %169, ptr noundef %170, i32 noundef %173, i32 noundef 4, i32 noundef %174)
  br label %176

176:                                              ; preds = %167, %158
  br label %253

177:                                              ; preds = %44
  %178 = load ptr, ptr %10, align 8
  %179 = load ptr, ptr %13, align 8
  %180 = load i8, ptr %14, align 1, !range !8, !noundef !9
  %181 = trunc i8 %180 to i1
  %182 = load i32, ptr %15, align 4
  %183 = call zeroext i16 @get_CDR_ushort(ptr noundef %178, ptr noundef %179, i1 noundef zeroext %181, i32 noundef %182)
  store i16 %183, ptr %20, align 2
  %184 = load ptr, ptr %25, align 8
  %185 = icmp ne ptr %184, null
  br i1 %185, label %186, label %196

186:                                              ; preds = %177
  %187 = load ptr, ptr %25, align 8
  %188 = load i32, ptr @hf_giop_typecode_digits, align 4
  %189 = load ptr, ptr %10, align 8
  %190 = load ptr, ptr %13, align 8
  %191 = load i32, ptr %190, align 4
  %192 = sub i32 %191, 2
  %193 = load i16, ptr %20, align 2
  %194 = zext i16 %193 to i32
  %195 = call ptr @proto_tree_add_uint(ptr noundef %187, i32 noundef %188, ptr noundef %189, i32 noundef %192, i32 noundef 2, i32 noundef %194)
  br label %196

196:                                              ; preds = %186, %177
  %197 = load ptr, ptr %10, align 8
  %198 = load ptr, ptr %13, align 8
  %199 = load i8, ptr %14, align 1, !range !8, !noundef !9
  %200 = trunc i8 %199 to i1
  %201 = load i32, ptr %15, align 4
  %202 = call signext i16 @get_CDR_short(ptr noundef %197, ptr noundef %198, i1 noundef zeroext %200, i32 noundef %201)
  store i16 %202, ptr %19, align 2
  %203 = load ptr, ptr %25, align 8
  %204 = icmp ne ptr %203, null
  br i1 %204, label %205, label %215

205:                                              ; preds = %196
  %206 = load ptr, ptr %25, align 8
  %207 = load i32, ptr @hf_giop_typecode_scale, align 4
  %208 = load ptr, ptr %10, align 8
  %209 = load ptr, ptr %13, align 8
  %210 = load i32, ptr %209, align 4
  %211 = sub i32 %210, 2
  %212 = load i16, ptr %19, align 2
  %213 = sext i16 %212 to i32
  %214 = call ptr @proto_tree_add_int(ptr noundef %206, i32 noundef %207, ptr noundef %208, i32 noundef %211, i32 noundef 2, i32 noundef %213)
  br label %215

215:                                              ; preds = %205, %196
  br label %253

216:                                              ; preds = %44
  %217 = load ptr, ptr %10, align 8
  %218 = load ptr, ptr %11, align 8
  %219 = load ptr, ptr %25, align 8
  %220 = load ptr, ptr %13, align 8
  %221 = load i8, ptr %14, align 1, !range !8, !noundef !9
  %222 = trunc i8 %221 to i1
  %223 = load i32, ptr %15, align 4
  %224 = load ptr, ptr %16, align 8
  call void @dissect_tk_value_params(ptr noundef %217, ptr noundef %218, ptr noundef %219, ptr noundef %220, i1 noundef zeroext %222, i32 noundef %223, ptr noundef %224)
  br label %253

225:                                              ; preds = %44
  %226 = load ptr, ptr %10, align 8
  %227 = load ptr, ptr %11, align 8
  %228 = load ptr, ptr %25, align 8
  %229 = load ptr, ptr %13, align 8
  %230 = load i8, ptr %14, align 1, !range !8, !noundef !9
  %231 = trunc i8 %230 to i1
  %232 = load i32, ptr %15, align 4
  %233 = load ptr, ptr %16, align 8
  call void @dissect_tk_value_box_params(ptr noundef %226, ptr noundef %227, ptr noundef %228, ptr noundef %229, i1 noundef zeroext %231, i32 noundef %232, ptr noundef %233)
  br label %253

234:                                              ; preds = %44
  %235 = load ptr, ptr %10, align 8
  %236 = load ptr, ptr %25, align 8
  %237 = load ptr, ptr %13, align 8
  %238 = load i8, ptr %14, align 1, !range !8, !noundef !9
  %239 = trunc i8 %238 to i1
  %240 = load i32, ptr %15, align 4
  call void @dissect_tk_native_params(ptr noundef %235, ptr noundef %236, ptr noundef %237, i1 noundef zeroext %239, i32 noundef %240)
  br label %253

241:                                              ; preds = %44
  %242 = load ptr, ptr %10, align 8
  %243 = load ptr, ptr %25, align 8
  %244 = load ptr, ptr %13, align 8
  %245 = load i8, ptr %14, align 1, !range !8, !noundef !9
  %246 = trunc i8 %245 to i1
  %247 = load i32, ptr %15, align 4
  call void @dissect_tk_abstract_interface_params(ptr noundef %242, ptr noundef %243, ptr noundef %244, i1 noundef zeroext %246, i32 noundef %247)
  br label %253

248:                                              ; preds = %44
  %249 = load ptr, ptr %11, align 8
  %250 = load ptr, ptr %22, align 8
  %251 = load i32, ptr %18, align 4
  %252 = call ptr (ptr, ptr, ptr, ptr, ...) @expert_add_info_format(ptr noundef %249, ptr noundef %250, ptr noundef @ei_giop_unknown_tckind, ptr noundef @.str.248, i32 noundef %251)
  br label %253

253:                                              ; preds = %248, %241, %44, %44, %44, %44, %44, %44, %44, %44, %44, %44, %44, %44, %44, %44, %44, %44, %44, %44, %234, %225, %216, %215, %176, %149, %139, %129, %119, %118, %91, %81, %71, %64
  %254 = load ptr, ptr %11, align 8
  %255 = load i32, ptr @proto_giop, align 4
  %256 = load i32, ptr %23, align 4
  call void @p_set_proto_depth(ptr noundef %254, i32 noundef %255, i32 noundef %256)
  %257 = load i32, ptr %18, align 4
  store i32 %257, ptr %9, align 4
  store i32 1, ptr %24, align 4
  call void @llvm.lifetime.end.p0(i64 8, ptr %25) #14
  br label %258

258:                                              ; preds = %253, %38
  call void @llvm.lifetime.end.p0(i64 4, ptr %23) #14
  call void @llvm.lifetime.end.p0(i64 8, ptr %22) #14
  call void @llvm.lifetime.end.p0(i64 4, ptr %21) #14
  call void @llvm.lifetime.end.p0(i64 2, ptr %20) #14
  call void @llvm.lifetime.end.p0(i64 2, ptr %19) #14
  call void @llvm.lifetime.end.p0(i64 4, ptr %18) #14
  %259 = load i32, ptr %9, align 4
  ret i32 %259
}