; Function Attrs: null_pointer_is_valid sspstrong uwtable
define internal fastcc i32 @get_CDR_typeCode_with_params(ptr noundef %0, ptr noundef %1, ptr noundef %2, ptr noundef captures(none) %3, i1 noundef zeroext %4, i32 noundef %5, ptr noundef readonly captures(none) %6, ptr noundef %7) unnamed_addr #0 {
  %.promoted.i = load i32, ptr %3, align 4
  %9 = add i32 %.promoted.i, %5
  %10 = and i32 %9, 3
  %.not9.i = icmp eq i32 %10, 0
  br i1 %.not9.i, label %12, label %.lr.ph.preheader.i

.lr.ph.preheader.i:                               ; preds = %8
  %11 = or i32 %9, -4
  %sub = sub i32 %.promoted.i, %11
  store i32 %sub, ptr %3, align 4
  br label %12

12:                                               ; preds = %.lr.ph.preheader.i, %8
  %.lcssa.i = phi i32 [ %sub, %.lr.ph.preheader.i ], [ %.promoted.i, %8 ]
  br i1 %4, label %13, label %15

13:                                               ; preds = %12
  %14 = tail call i32 @tvb_get_ntohl(ptr noundef %0, i32 noundef %.lcssa.i)
  br label %get_CDR_ulong.exit

15:                                               ; preds = %12
  %16 = tail call i32 @tvb_get_letohl(ptr noundef %0, i32 noundef %.lcssa.i)
  br label %get_CDR_ulong.exit

get_CDR_ulong.exit:                               ; preds = %13, %15
  %17 = phi i32 [ %14, %13 ], [ %16, %15 ]
  %18 = load i32, ptr %3, align 4
  %19 = add i32 %18, 4
  store i32 %19, ptr %3, align 4
  %20 = load i32, ptr @proto_giop, align 4
  %21 = tail call i32 @p_get_proto_depth(ptr noundef %1, i32 noundef %20)
  %22 = icmp ugt i32 %21, 100
  br i1 %22, label %23, label %25

23:                                               ; preds = %get_CDR_ulong.exit
  %24 = tail call ptr @proto_tree_add_expert(ptr noundef %2, ptr noundef %1, ptr noundef nonnull @ei_giop_max_recursion_depth_reached, ptr noundef %0, i32 noundef 0, i32 noundef 0)
  br label %81

25:                                               ; preds = %get_CDR_ulong.exit
  %26 = load i32, ptr @proto_giop, align 4
  %27 = add nuw nsw i32 %21, 1
  tail call void @p_set_proto_depth(ptr noundef %1, i32 noundef %26, i32 noundef %27)
  %28 = load i32, ptr @hf_giop_TCKind, align 4
  %29 = load i32, ptr %3, align 4
  %30 = add i32 %29, -4
  %31 = tail call ptr @proto_tree_add_uint(ptr noundef %2, i32 noundef %28, ptr noundef %0, i32 noundef %30, i32 noundef 4, i32 noundef %17)
  %32 = load i32, ptr %3, align 4
  %33 = load i32, ptr @ett_giop_typecode_parameters, align 4
  %34 = tail call ptr @proto_tree_add_subtree(ptr noundef %2, ptr noundef %0, i32 noundef %32, i32 noundef -1, i32 noundef %33, ptr noundef null, ptr noundef nonnull @.str.247)
  switch i32 %17, label %77 [
    i32 0, label %79
    i32 1, label %79
    i32 2, label %79
    i32 3, label %79
    i32 4, label %79
    i32 5, label %79
    i32 6, label %79
    i32 7, label %79
    i32 8, label %79
    i32 9, label %79
    i32 10, label %79
    i32 11, label %79
    i32 12, label %79
    i32 13, label %79
    i32 14, label %35
    i32 15, label %36
    i32 16, label %37
    i32 17, label %38
    i32 18, label %40
    i32 19, label %47
    i32 20, label %48
    i32 21, label %49
    i32 22, label %50
    i32 23, label %79
    i32 24, label %79
    i32 25, label %79
    i32 26, label %79
    i32 27, label %51
    i32 28, label %58
    i32 29, label %73
    i32 30, label %74
    i32 31, label %75
    i32 32, label %76
  ]

35:                                               ; preds = %25
  tail call fastcc void @dissect_tk_objref_params(ptr noundef %0, ptr noundef %34, ptr noundef %3, i1 noundef zeroext %4, i32 noundef %5)
  br label %79

36:                                               ; preds = %25
  tail call fastcc void @dissect_tk_struct_params(ptr noundef %0, ptr noundef %1, ptr noundef %34, ptr noundef %3, i1 noundef zeroext %4, i32 noundef %5, ptr noundef %6, ptr noundef %7)
  br label %79

37:                                               ; preds = %25
  tail call fastcc void @dissect_tk_union_params(ptr noundef %0, ptr noundef %1, ptr noundef %34, ptr noundef %31, ptr noundef %3, i1 noundef zeroext %4, i32 noundef %5, ptr noundef %6)
  br label %79

38:                                               ; preds = %25
  %39 = getelementptr i8, ptr %1, i64 408
  %.val = load ptr, ptr %39, align 8
  tail call fastcc void @dissect_tk_enum_params(ptr noundef %0, ptr %.val, ptr noundef %34, ptr noundef %3, i1 noundef zeroext %4, i32 noundef %5, ptr noundef %7)
  br label %79

40:                                               ; preds = %25
  %41 = tail call i32 @get_CDR_ulong(ptr noundef %0, ptr noundef %3, i1 noundef zeroext %4, i32 noundef %5)
  %.not147 = icmp eq ptr %34, null
  br i1 %.not147, label %79, label %42

42:                                               ; preds = %40
  %43 = load i32, ptr @hf_giop_typecode_max_length, align 4
  %44 = load i32, ptr %3, align 4
  %45 = add i32 %44, -4
  %46 = tail call ptr @proto_tree_add_uint(ptr noundef nonnull %34, i32 noundef %43, ptr noundef %0, i32 noundef %45, i32 noundef 4, i32 noundef %41)
  br label %79

47:                                               ; preds = %25
  tail call fastcc void @dissect_tk_sequence_params(ptr noundef %0, ptr noundef %1, ptr noundef %34, ptr noundef %3, i1 noundef zeroext %4, i32 noundef %5, ptr noundef %6, ptr noundef %7)
  br label %79

48:                                               ; preds = %25
  tail call fastcc void @dissect_tk_array_params(ptr noundef %0, ptr noundef %1, ptr noundef %34, ptr noundef %3, i1 noundef zeroext %4, i32 noundef %5, ptr noundef %6, ptr noundef %7)
  br label %79

49:                                               ; preds = %25
  tail call fastcc void @dissect_tk_alias_params(ptr noundef %0, ptr noundef %1, ptr noundef %34, ptr noundef %3, i1 noundef zeroext %4, i32 noundef %5, ptr noundef %6, ptr noundef %7)
  br label %79

50:                                               ; preds = %25
  tail call fastcc void @dissect_tk_except_params(ptr noundef %0, ptr noundef %1, ptr noundef %34, ptr noundef %3, i1 noundef zeroext %4, i32 noundef %5, ptr noundef %6)
  br label %79

51:                                               ; preds = %25
  %52 = tail call i32 @get_CDR_ulong(ptr noundef %0, ptr noundef %3, i1 noundef zeroext %4, i32 noundef %5)
  %.not146 = icmp eq ptr %34, null
  br i1 %.not146, label %79, label %53

53:                                               ; preds = %51
  %54 = load i32, ptr @hf_giop_typecode_max_length, align 4
  %55 = load i32, ptr %3, align 4
  %56 = add i32 %55, -4
  %57 = tail call ptr @proto_tree_add_uint(ptr noundef nonnull %34, i32 noundef %54, ptr noundef %0, i32 noundef %56, i32 noundef 4, i32 noundef %52)
  br label %79

58:                                               ; preds = %25
  %59 = tail call zeroext i16 @get_CDR_ushort(ptr noundef %0, ptr noundef %3, i1 noundef zeroext %4, i32 noundef %5)
  %.not = icmp eq ptr %34, null
  br i1 %.not, label %.thread, label %61

.thread:                                          ; preds = %58
  %60 = tail call signext i16 @get_CDR_short(ptr noundef %0, ptr noundef %3, i1 noundef zeroext %4, i32 noundef %5)
  br label %79

61:                                               ; preds = %58
  %62 = load i32, ptr @hf_giop_typecode_digits, align 4
  %63 = load i32, ptr %3, align 4
  %64 = add i32 %63, -2
  %65 = zext i16 %59 to i32
  %66 = tail call ptr @proto_tree_add_uint(ptr noundef nonnull %34, i32 noundef %62, ptr noundef %0, i32 noundef %64, i32 noundef 2, i32 noundef %65)
  %67 = tail call signext i16 @get_CDR_short(ptr noundef %0, ptr noundef %3, i1 noundef zeroext %4, i32 noundef %5)
  %68 = load i32, ptr @hf_giop_typecode_scale, align 4
  %69 = load i32, ptr %3, align 4
  %70 = add i32 %69, -2
  %71 = sext i16 %67 to i32
  %72 = tail call ptr @proto_tree_add_int(ptr noundef nonnull %34, i32 noundef %68, ptr noundef %0, i32 noundef %70, i32 noundef 2, i32 noundef %71)
  br label %79

73:                                               ; preds = %25
  tail call fastcc void @dissect_tk_value_params(ptr noundef %0, ptr noundef %1, ptr noundef %34, ptr noundef %3, i1 noundef zeroext %4, i32 noundef %5, ptr noundef %6)
  br label %79

74:                                               ; preds = %25
  tail call fastcc void @dissect_tk_value_box_params(ptr noundef %0, ptr noundef %1, ptr noundef %34, ptr noundef %3, i1 noundef zeroext %4, i32 noundef %5, ptr noundef %6)
  br label %79

75:                                               ; preds = %25
  tail call fastcc void @dissect_tk_native_params(ptr noundef %0, ptr noundef %34, ptr noundef %3, i1 noundef zeroext %4, i32 noundef %5)
  br label %79

76:                                               ; preds = %25
  tail call fastcc void @dissect_tk_abstract_interface_params(ptr noundef %0, ptr noundef %34, ptr noundef %3, i1 noundef zeroext %4, i32 noundef %5)
  br label %79

77:                                               ; preds = %25
  %78 = tail call ptr (ptr, ptr, ptr, ptr, ...) @expert_add_info_format(ptr noundef %1, ptr noundef %31, ptr noundef nonnull @ei_giop_unknown_tckind, ptr noundef nonnull @.str.248, i32 noundef %17)
  br label %79

79:                                               ; preds = %.thread, %61, %51, %53, %40, %42, %77, %76, %75, %74, %73, %50, %49, %48, %47, %38, %37, %36, %35, %25, %25, %25, %25, %25, %25, %25, %25, %25, %25, %25, %25, %25, %25, %25, %25, %25, %25
  %80 = load i32, ptr @proto_giop, align 4
  tail call void @p_set_proto_depth(ptr noundef %1, i32 noundef %80, i32 noundef %21)
  br label %81

81:                                               ; preds = %79, %23
  ret i32 %17
}